(iengine
Engine
p0
(dp1
S'argParser'
p2
(iargParser
ArgParser
p3
(dp4
S'logger'
p5
(ilogger
Logger
p6
(dp7
S'outputPath'
p8
S'.//lazarus_job_status.log'
p9
sS'verbosityLevel'
p10
I1
sbsS'args'
p11
(lp12
S'/Users/victor/Documents/SourceCode/Lazarus/lazarus.py'
p13
aS'--baseml'
p14
aS'--alignment'
p15
aS'mcm1codalign.fasta'
p16
aS'--getanc'
p17
aS'--outgroup'
p18
aS'[Zrou_Mc05]'
p19
aS'--ingroup'
p20
aS'[Vpol_Mc08,Ylip_MA21]'
p21
aS'--model'
p22
aS'HKY85'
p23
aS'--branch_length'
p24
aS'estimate'
p25
aS'--outputdir'
p26
aS'/Users/victor/Documents/SourceCode/Lazarus/DOCUMENTATION/example_data'
p27
aS'--tree'
p28
aS'mcm1codalign.mltree.tre'
p29
aS'--alpha'
p30
aS'0.5'
p31
asbsS'fix_asrv'
p32
I00
sg5
(ilogger
Logger
p33
(dp34
g8
S'/Users/victor/Documents/SourceCode/Lazarus/DOCUMENTATION/example_data/lazarus_job_status.log'
p35
sg10
I1
sbsS'data'
p36
(idataWharehouse
DataWharehouse
p37
(dp38
g2
g3
sS'trees'
p39
(dp40
I1
(itree
Tree
p41
(dp42
S'temporary_tree_object'
p43
NsS'newickString'
p44
S'(Scer_ar24: 1.269845, (((Zrou_Ar26: 1.812852, (Cgla_Ar28: 1.770756, (Tpha_Ar31: 7.428758, Zpol_Ar30: 1.629735): 3.531203): 0.362012): 0.348763, Tdel_Ar29: 1.601168): 0.500805, (Kafr_Ar23: 0.853265, ((Klac_MA20: 0.023632, (Ecym_MA18: 0.404217, (Agos_MA16: 0.126507, (Lthe_MA19: 0.143725, (Ylip_MA21: 0.355977, Kpas_MA22: 0.950727): 0.121866): 0.274421): 0.512038): 0.232082): 0.471008, ((((Ncas_Mc10: 0.312761, ((Ncas_Mc09: 0.278892, Vpol_Mc03: 0.248795): 0.160814, Vpol_Mc08: 0.244130): 0.034769): 0.077974, (((Tbla_Mc15: 0.051528, Tbla_Mc12: 0.271285): 0.094149, (Ndai_Mc06: 0.266929, (Tpha_Mc13: 0.092167, (Kafr_MA17: 0.559158, Cgla_Mc14: 0.364441): 0.203765): 0.123957): 0.082773): 0.041534, Ndai_Mc11: 0.228381): 0.039110): 0.223640, (Cgla_Mc01: 0.427555, (Zrou_Mc05: 0.067551, (Tpha_Mc04: 0.389507, Scer_Mc00: 0.456738): 0.215246): 0.255183): 0.121089): 0.072612, (Tdel_Mc02: 0.393476, Kafr_Mc07: 0.196148): 0.060584): 0.252523): 1.599778): 0.535480): 0.194224, (Ncas_Ar25: 0.717756, Ndai_Ar27: 1.167231): 0.487237);'
p45
sS'postprob'
p46
F1.0
sS'lnL'
p47
F-4676.61564
sS'treeviewString'
p48
S'(Scer_ar24, (((Zrou_Ar26, (Cgla_Ar28, (Tpha_Ar31, Zpol_Ar30) 38 ) 37 ) 36 , Tdel_Ar29) 35 , (Kafr_Ar23, ((Klac_MA20, (Ecym_MA18, (Agos_MA16, (Lthe_MA19, (Ylip_MA21, Kpas_MA22) 45 ) 44 ) 43 ) 42 ) 41 , ((((Ncas_Mc10, ((Ncas_Mc09, Vpol_Mc03) 51 , Vpol_Mc08) 50 ) 49 , (((Tbla_Mc15, Tbla_Mc12) 54 , (Ndai_Mc06, (Tpha_Mc13, (Kafr_MA17, Cgla_Mc14) 57 ) 56 ) 55 ) 53 , Ndai_Mc11) 52 ) 48 , (Cgla_Mc01, (Zrou_Mc05, (Tpha_Mc04, Scer_Mc00) 60 ) 59 ) 58 ) 47 , (Tdel_Mc02, Kafr_Mc07) 61 ) 46 ) 40 ) 39 ) 34 , (Ncas_Ar25, Ndai_Ar27) 62 ) 33 ;'
p49
sS'treeNumber'
p50
I1
sS'exclude'
p51
I00
sS'nodes'
p52
(dp53
sS'temporary_states'
p54
(dp55
sbssbsS'pamljobs'
p56
(dp57
I1
(ipamlJob
BasemlJob
p58
(dp59
S'ncat_gamma'
p60
I4
sS'modelName'
p61
g23
sS'cleandata'
p62
I0
sS'estimate_branch_lengths'
p63
I00
sS'treePath'
p64
S'/Users/victor/Documents/SourceCode/Lazarus/DOCUMENTATION/example_data/tree1/pamlWorkspace/reformatted_tree.tre'
p65
sS'alpha'
p66
F0.5
sg32
I00
sS'outputDirectory'
p67
S'/Users/victor/Documents/SourceCode/Lazarus/DOCUMENTATION/example_data/tree1/pamlWorkspace'
p68
sg50
I1
sS'controlPath'
p69
S'/Users/victor/Documents/SourceCode/Lazarus/DOCUMENTATION/example_data/tree1/pamlWorkspace/baseml.ctl'
p70
sS'alignmentPath'
p71
S'/Users/victor/Documents/SourceCode/Lazarus/DOCUMENTATION/example_data/tree1/pamlWorkspace/reformatted_alignment.phy'
p72
sS'among_site_rate_variation'
p73
I00
sS'executionDirectory'
p74
g68
sbssb.